target datalayout = "e-m:e-p270:32:32-p271:32:32-p272:64:64-i64:64-i128:128-f80:128-n8:16:32:64-S128"
target triple = "x86_64-pc-linux-gnu"

%struct.OSSL_TIME = type { i64 }
%struct.ssl_st = type { i32, ptr, ptr, ptr, %struct.CRYPTO_REF_COUNT, ptr, %struct.crypto_ex_data_st }
%struct.CRYPTO_REF_COUNT = type { i32 }
%struct.crypto_ex_data_st = type { ptr, ptr }
%struct.ssl_connection_st = type { %struct.ssl_st, ptr, i32, ptr, ptr, ptr, i32, ptr, i32, i32, i32, i32, %struct.OSSL_TIME, %struct.OSSL_TIME, %struct.ossl_statem_st, i32, ptr, ptr, i64, i64, i64, %struct.ossl_quic_tls_callbacks_st, ptr, ptr, %struct.anon, ptr, ptr, ptr, i32, ptr, %struct.ssl_dane_st, ptr, ptr, ptr, ptr, i32, [64 x i8], [64 x i8], [64 x i8], [64 x i8], [64 x i8], [64 x i8], [64 x i8], [64 x i8], [64 x i8], [64 x i8], [64 x i8], [64 x i8], ptr, [64 x i8], i64, i32, i64, [32 x i8], ptr, ptr, ptr, i64, ptr, [32 x i8], i64, i32, ptr, ptr, i32, i32, ptr, ptr, ptr, ptr, ptr, i64, ptr, ptr, i64, i32, i32, i32, i64, i32, i32, i64, i64, i64, %struct.anon.1, ptr, i32, ptr, ptr, ptr, i32, ptr, ptr, ptr, i32, i32, i32, i32, ptr, i64, i32, ptr, %struct.srp_ctx_st, ptr, %struct.record_layer_st, ptr, ptr, ptr, ptr, i64, i32, i32, i32, i64, i64, i64, ptr, ptr, ptr, ptr, ptr, i64, ptr, i64, ptr, i64 }
%struct.ossl_statem_st = type { i32, i32, i32, i32, i32, i32, i32, i32, i32, i32, i32, i32, i32, ptr, ptr, ptr, i8 }
%struct.ossl_quic_tls_callbacks_st = type { ptr, ptr, ptr, ptr, ptr, ptr }
%struct.anon = type { i64, [32 x i8], [32 x i8], ptr, ptr, i32, i32, i32, i32, [2 x i8], i32, i32, i32, i32, %struct.anon.0, [64 x i8], i64, [64 x i8], i64, i32, i32, ptr, i64, ptr, i64, i32, i8, i8, i16, ptr, i16 }
%struct.anon.0 = type { [128 x i8], i64, [128 x i8], i64, i64, i32, ptr, ptr, [4 x ptr], [4 x i16], i64, i32, ptr, i64, ptr, i64, ptr, ptr, ptr, i32, i64, ptr, i32, ptr, i64, ptr, i64, ptr, i64, ptr, ptr, ptr, ptr, i64, i64, ptr, ptr, i32, i32, i32, i32 }
%struct.ssl_dane_st = type { ptr, ptr, ptr, ptr, ptr, i32, i32, i32, i64 }
%struct.anon.1 = type { [29 x i8], ptr, ptr, ptr, i32, ptr, i16, i32, %struct.anon.2, i32, i32, i64, ptr, i64, ptr, i64, ptr, i64, ptr, i64, ptr, i64, ptr, ptr, ptr, ptr, ptr, ptr, ptr, i64, ptr, i64, i32, i32, i32, i32, ptr, i64, i32, i8, i32, [4 x i32], i32, i8, i8, i8, i8 }
%struct.anon.2 = type { ptr, ptr, ptr, i64 }
%struct.srp_ctx_st = type { ptr, ptr, ptr, ptr, ptr, ptr, ptr, ptr, ptr, ptr, ptr, ptr, ptr, ptr, i32, i64 }
%struct.record_layer_st = type { ptr, ptr, ptr, ptr, ptr, ptr, ptr, ptr, i64, i32, i64, [4 x i8], i64, i64, i8, ptr, i32, ptr, ptr, ptr, i64, i64, i64, i64, [32 x %struct.tls_record_st] }
%struct.tls_record_st = type { ptr, i32, i8, ptr, ptr, i64, i64, i16, [8 x i8] }
%struct.ssl_ctx_st = type { ptr, ptr, ptr, ptr, ptr, ptr, ptr, i64, ptr, ptr, i32, %struct.OSSL_TIME, ptr, ptr, ptr, %struct.anon.3, %struct.CRYPTO_REF_COUNT, ptr, ptr, ptr, ptr, ptr, ptr, ptr, ptr, ptr, %struct.crypto_ex_data_st, ptr, ptr, ptr, ptr, ptr, ptr, ptr, i64, i32, i32, i32, i64, ptr, ptr, i32, ptr, ptr, i32, i64, [32 x i8], ptr, ptr, ptr, i32, ptr, ptr, ptr, i64, i64, i64, i64, ptr, ptr, ptr, ptr, ptr, %struct.anon.4, ptr, ptr, ptr, ptr, %struct.srp_ctx_st, %struct.dane_ctx_st, ptr, ptr, ptr, ptr, i32, i32, ptr, ptr, i64, i64, ptr, ptr, ptr, i64, ptr, ptr, i32, ptr, ptr, ptr, [14 x i32], [24 x ptr], [14 x ptr], [14 x i64], i64, ptr, ptr, ptr, i64, i64, ptr, i64, i64, i32, i32, i32, i32, ptr, i64, ptr, i64, i64, ptr, ptr }
%struct.anon.3 = type { i32, i32, i32, i32, i32, i32, i32, i32, i32, i32, i32 }
%struct.anon.4 = type { ptr, ptr, [16 x i8], ptr, ptr, ptr, ptr, ptr, i32, i8, i64, ptr, i64, ptr, i64, ptr, i64, ptr, ptr, i64, ptr, ptr, ptr, i64, ptr, ptr, ptr, ptr, [32 x i8] }
%struct.dane_ctx_st = type { ptr, ptr, i8, i64 }
%struct.cert_st = type { ptr, ptr, ptr, i32, i32, ptr, i64, ptr, i64, ptr, i64, ptr, i64, ptr, ptr, ptr, ptr, %struct.custom_ext_methods, ptr, i32, ptr, ptr, %struct.CRYPTO_REF_COUNT }
%struct.custom_ext_methods = type { ptr, i64 }

@suiteb_curves = internal constant [2 x i16] [i16 23, i16 24], align 2

; Function Attrs: nounwind uwtable
define void @tls1_get_supported_groups(ptr noundef %0, ptr noundef %1, ptr noundef %2) #1 {
  %4 = alloca ptr, align 8
  %5 = alloca ptr, align 8
  %6 = alloca ptr, align 8
  %7 = alloca ptr, align 8
  store ptr %0, ptr %4, align 8, !tbaa !25
  store ptr %1, ptr %5, align 8, !tbaa !134
  store ptr %2, ptr %6, align 8, !tbaa !136
  call void @llvm.lifetime.start.p0(i64 8, ptr %7) #8
  %8 = load ptr, ptr %4, align 8, !tbaa !25
  %9 = getelementptr inbounds nuw %struct.ssl_connection_st, ptr %8, i32 0, i32 0
  %10 = getelementptr inbounds nuw %struct.ssl_st, ptr %9, i32 0, i32 1
  %11 = load ptr, ptr %10, align 8, !tbaa !137
  store ptr %11, ptr %7, align 8, !tbaa !80
  %12 = load ptr, ptr %4, align 8, !tbaa !25
  %13 = getelementptr inbounds nuw %struct.ssl_connection_st, ptr %12, i32 0, i32 48
  %14 = load ptr, ptr %13, align 8, !tbaa !138
  %15 = getelementptr inbounds nuw %struct.cert_st, ptr %14, i32 0, i32 4
  %16 = load i32, ptr %15, align 4, !tbaa !139
  %17 = and i32 %16, 196608
  switch i32 %17, label %27 [
    i32 196608, label %18
    i32 65536, label %21
    i32 131072, label %24
  ]

18:                                               ; preds = %3
  %19 = load ptr, ptr %5, align 8, !tbaa !134
  store ptr @suiteb_curves, ptr %19, align 8, !tbaa !142
  %20 = load ptr, ptr %6, align 8, !tbaa !136
  store i64 2, ptr %20, align 8, !tbaa !3
  br label %56

21:                                               ; preds = %3
  %22 = load ptr, ptr %5, align 8, !tbaa !134
  store ptr @suiteb_curves, ptr %22, align 8, !tbaa !142
  %23 = load ptr, ptr %6, align 8, !tbaa !136
  store i64 1, ptr %23, align 8, !tbaa !3
  br label %56

24:                                               ; preds = %3
  %25 = load ptr, ptr %5, align 8, !tbaa !134
  store ptr getelementptr inbounds (i16, ptr @suiteb_curves, i64 1), ptr %25, align 8, !tbaa !142
  %26 = load ptr, ptr %6, align 8, !tbaa !136
  store i64 1, ptr %26, align 8, !tbaa !3
  br label %56

27:                                               ; preds = %3
  %28 = load ptr, ptr %4, align 8, !tbaa !25
  %29 = getelementptr inbounds nuw %struct.ssl_connection_st, ptr %28, i32 0, i32 84
  %30 = getelementptr inbounds nuw %struct.anon.1, ptr %29, i32 0, i32 16
  %31 = load ptr, ptr %30, align 8, !tbaa !143
  %32 = icmp eq ptr %31, null
  br i1 %32, label %33, label %44

33:                                               ; preds = %27
  %34 = load ptr, ptr %7, align 8, !tbaa !80
  %35 = getelementptr inbounds nuw %struct.ssl_ctx_st, ptr %34, i32 0, i32 63
  %36 = getelementptr inbounds nuw %struct.anon.4, ptr %35, i32 0, i32 18
  %37 = load ptr, ptr %36, align 8, !tbaa !104
  %38 = load ptr, ptr %5, align 8, !tbaa !134
  store ptr %37, ptr %38, align 8, !tbaa !142
  %39 = load ptr, ptr %7, align 8, !tbaa !80
  %40 = getelementptr inbounds nuw %struct.ssl_ctx_st, ptr %39, i32 0, i32 63
  %41 = getelementptr inbounds nuw %struct.anon.4, ptr %40, i32 0, i32 19
  %42 = load i64, ptr %41, align 8, !tbaa !105
  %43 = load ptr, ptr %6, align 8, !tbaa !136
  store i64 %42, ptr %43, align 8, !tbaa !3
  br label %55

44:                                               ; preds = %27
  %45 = load ptr, ptr %4, align 8, !tbaa !25
  %46 = getelementptr inbounds nuw %struct.ssl_connection_st, ptr %45, i32 0, i32 84
  %47 = getelementptr inbounds nuw %struct.anon.1, ptr %46, i32 0, i32 16
  %48 = load ptr, ptr %47, align 8, !tbaa !143
  %49 = load ptr, ptr %5, align 8, !tbaa !134
  store ptr %48, ptr %49, align 8, !tbaa !142
  %50 = load ptr, ptr %4, align 8, !tbaa !25
  %51 = getelementptr inbounds nuw %struct.ssl_connection_st, ptr %50, i32 0, i32 84
  %52 = getelementptr inbounds nuw %struct.anon.1, ptr %51, i32 0, i32 15
  %53 = load i64, ptr %52, align 8, !tbaa !144
  %54 = load ptr, ptr %6, align 8, !tbaa !136
  store i64 %53, ptr %54, align 8, !tbaa !3
  br label %55

55:                                               ; preds = %44, %33
  br label %56

56:                                               ; preds = %55, %24, %21, %18
  call void @llvm.lifetime.end.p0(i64 8, ptr %7) #8
  ret void
}