; Function Attrs: mustprogress nofree norecurse nosync nounwind willreturn memory(read, argmem: readwrite, inaccessiblemem: none) uwtable
define void @tls1_get_supported_groups(ptr noundef readonly captures(none) %0, ptr noundef writeonly captures(none) %1, ptr noundef writeonly captures(none) %2) local_unnamed_addr #7 {
  %4 = getelementptr inbounds nuw i8, ptr %0, i64 8
  %5 = load ptr, ptr %4, align 8, !tbaa !126
  %6 = getelementptr inbounds nuw i8, ptr %0, i64 2176
  %7 = load ptr, ptr %6, align 8, !tbaa !127
  %8 = getelementptr inbounds nuw i8, ptr %7, i64 28
  %9 = load i32, ptr %8, align 4, !tbaa !128
  %10 = lshr i32 %9, 16
  %11 = and i32 %10, 3
  switch i32 %11, label %default.unreachable [
    i32 3, label %12
    i32 1, label %13
    i32 2, label %14
    i32 0, label %15
  ]

12:                                               ; preds = %3
  store ptr @suiteb_curves, ptr %1, align 8, !tbaa !131
  br label %27

13:                                               ; preds = %3
  store ptr @suiteb_curves, ptr %1, align 8, !tbaa !131
  br label %27

14:                                               ; preds = %3
  store ptr getelementptr inbounds nuw (i8, ptr @suiteb_curves, i64 2), ptr %1, align 8, !tbaa !131
  br label %27

default.unreachable:                              ; preds = %3
  unreachable

15:                                               ; preds = %3
  %16 = getelementptr inbounds nuw i8, ptr %0, i64 2704
  %17 = load ptr, ptr %16, align 8, !tbaa !132
  %18 = icmp eq ptr %17, null
  br i1 %18, label %19, label %24

19:                                               ; preds = %15
  %20 = getelementptr inbounds nuw i8, ptr %5, i64 704
  %21 = load ptr, ptr %20, align 8, !tbaa !99
  store ptr %21, ptr %1, align 8, !tbaa !131
  %22 = getelementptr inbounds nuw i8, ptr %5, i64 712
  %23 = load i64, ptr %22, align 8, !tbaa !100
  br label %27

24:                                               ; preds = %15
  store ptr %17, ptr %1, align 8, !tbaa !131
  %25 = getelementptr inbounds nuw i8, ptr %0, i64 2696
  %26 = load i64, ptr %25, align 8, !tbaa !133
  br label %27

27:                                               ; preds = %19, %24, %14, %13, %12
  %.sink = phi i64 [ %23, %19 ], [ %26, %24 ], [ 1, %14 ], [ 1, %13 ], [ 2, %12 ]
  store i64 %.sink, ptr %2, align 8, !tbaa !105
  ret void
}